target datalayout = "e-m:e-p270:32:32-p271:32:32-p272:64:64-i64:64-i128:128-f80:128-n8:16:32:64-S128"
target triple = "x86_64-pc-linux-gnu"

; Function Attrs: nounwind null_pointer_is_valid sspstrong uwtable
define i32 @crc32c_calculate(ptr noundef %0, i32 noundef %1, i32 noundef %2) #0 {
  %4 = alloca ptr, align 8
  %5 = alloca i32, align 4
  %6 = alloca i32, align 4
  %7 = alloca ptr, align 8
  store ptr %0, ptr %4, align 8
  store i32 %1, ptr %5, align 4
  store i32 %2, ptr %6, align 4
  call void @llvm.lifetime.start.p0(i64 8, ptr %7) #4
  %8 = load ptr, ptr %4, align 8
  store ptr %8, ptr %7, align 8
  %9 = load i32, ptr %6, align 4
  %10 = and i32 %9, -16777216
  %11 = lshr i32 %10, 24
  %12 = load i32, ptr %6, align 4
  %13 = and i32 %12, 16711680
  %14 = lshr i32 %13, 8
  %15 = or i32 %11, %14
  %16 = load i32, ptr %6, align 4
  %17 = and i32 %16, 65280
  %18 = shl i32 %17, 8
  %19 = or i32 %15, %18
  %20 = load i32, ptr %6, align 4
  %21 = and i32 %20, 255
  %22 = shl i32 %21, 24
  %23 = or i32 %19, %22
  store i32 %23, ptr %6, align 4
  br label %24

24:                                               ; preds = %28, %3
  %25 = load i32, ptr %5, align 4
  %26 = add i32 %25, -1
  store i32 %26, ptr %5, align 4
  %27 = icmp sgt i32 %25, 0
  br i1 %27, label %28, label %42

28:                                               ; preds = %24
  %29 = load i32, ptr %6, align 4
  %30 = lshr i32 %29, 8
  %31 = load i32, ptr %6, align 4
  %32 = load ptr, ptr %7, align 8
  %33 = getelementptr i8, ptr %32, i32 1
  store ptr %33, ptr %7, align 8
  %34 = load i8, ptr %32, align 1
  %35 = zext i8 %34 to i32
  %36 = xor i32 %31, %35
  %37 = and i32 %36, 255
  %38 = zext i32 %37 to i64
  %39 = getelementptr [256 x i32], ptr @crc32c_table, i64 0, i64 %38
  %40 = load i32, ptr %39, align 4
  %41 = xor i32 %30, %40
  store i32 %41, ptr %6, align 4
  br label %24, !llvm.loop !6

42:                                               ; preds = %24
  %43 = load i32, ptr %6, align 4
  %44 = and i32 %43, -16777216
  %45 = lshr i32 %44, 24
  %46 = load i32, ptr %6, align 4
  %47 = and i32 %46, 16711680
  %48 = lshr i32 %47, 8
  %49 = or i32 %45, %48
  %50 = load i32, ptr %6, align 4
  %51 = and i32 %50, 65280
  %52 = shl i32 %51, 8
  %53 = or i32 %49, %52
  %54 = load i32, ptr %6, align 4
  %55 = and i32 %54, 255
  %56 = shl i32 %55, 24
  %57 = or i32 %53, %56
  call void @llvm.lifetime.end.p0(i64 8, ptr %7) #4
  ret i32 %57
}