; Function Attrs: nofree norecurse nosync nounwind null_pointer_is_valid sspstrong memory(argmem: read) uwtable
define i32 @crc32c_calculate(ptr noundef readonly captures(none) %0, i32 noundef %1, i32 noundef %2) local_unnamed_addr #1 {
  %4 = tail call i32 @llvm.bswap.i32(i32 %2)
  %5 = icmp sgt i32 %1, 0
  br i1 %5, label %.lr.ph, label %._crit_edge

.lr.ph:                                           ; preds = %3, %.lr.ph
  %.016 = phi ptr [ %8, %.lr.ph ], [ %0, %3 ]
  %.01215 = phi i32 [ %13, %.lr.ph ], [ %4, %3 ]
  %.01314 = phi i32 [ %6, %.lr.ph ], [ %1, %3 ]
  %6 = add nsw i32 %.01314, -1
  %7 = lshr i32 %.01215, 8
  %8 = getelementptr i8, ptr %.016, i64 1
  %9 = load i8, ptr %.016, align 1
  %.012.tr = trunc i32 %.01215 to i8
  %.narrow = xor i8 %9, %.012.tr
  %10 = zext i8 %.narrow to i64
  %11 = getelementptr [256 x i32], ptr @crc32c_table, i64 0, i64 %10
  %12 = load i32, ptr %11, align 4
  %13 = xor i32 %12, %7
  %14 = icmp samesign ugt i32 %.01314, 1
  br i1 %14, label %.lr.ph, label %._crit_edge, !llvm.loop !6

._crit_edge:                                      ; preds = %.lr.ph, %3
  %.012.lcssa = phi i32 [ %4, %3 ], [ %13, %.lr.ph ]
  %15 = tail call i32 @llvm.bswap.i32(i32 %.012.lcssa)
  ret i32 %15
}